target datalayout = "e-m:e-p270:32:32-p271:32:32-p272:64:64-i64:64-i128:128-f80:128-n8:16:32:64-S128"
target triple = "x86_64-pc-linux-gnu"

%"class.lean::flet" = type { ptr, i64 }

@_ZN4leanL11g_heartbeatE = internal thread_local(localexec) global i64 0, align 8

; Function Attrs: mustprogress nounwind uwtable
define linkonce_odr hidden void @_ZN4lean4fletImEC2ERmRKm(ptr noundef nonnull align 8 dereferenceable(16) %0, ptr noundef nonnull align 8 dereferenceable(8) %1, ptr noundef nonnull align 8 dereferenceable(8) %2) unnamed_addr #0 comdat align 2 {
  %4 = alloca ptr, align 8
  %5 = alloca ptr, align 8
  %6 = alloca ptr, align 8
  store ptr %0, ptr %4, align 8, !tbaa !12
  store ptr %1, ptr %5, align 8, !tbaa !14
  store ptr %2, ptr %6, align 8, !tbaa !14
  %7 = load ptr, ptr %4, align 8
  %8 = getelementptr inbounds nuw %"class.lean::flet", ptr %7, i32 0, i32 0
  %9 = load ptr, ptr %5, align 8, !tbaa !14
  store ptr %9, ptr %8, align 8, !tbaa !14
  %10 = getelementptr inbounds nuw %"class.lean::flet", ptr %7, i32 0, i32 1
  %11 = load ptr, ptr %5, align 8, !tbaa !14
  %12 = load i64, ptr %11, align 8, !tbaa !3
  store i64 %12, ptr %10, align 8, !tbaa !16
  %13 = load ptr, ptr %6, align 8, !tbaa !14
  %14 = load i64, ptr %13, align 8, !tbaa !3
  %15 = getelementptr inbounds nuw %"class.lean::flet", ptr %7, i32 0, i32 0
  %16 = load ptr, ptr %15, align 8, !tbaa !18
  store i64 %14, ptr %16, align 8, !tbaa !3
  ret void
}

; Function Attrs: mustprogress uwtable
define hidden void @_ZN4lean15scope_heartbeatC2Em(ptr noundef nonnull align 8 dereferenceable(16) %0, i64 noundef %1) unnamed_addr #2 align 2 {
  %3 = alloca ptr, align 8
  %4 = alloca i64, align 8
  store ptr %0, ptr %3, align 8, !tbaa !9
  store i64 %1, ptr %4, align 8, !tbaa !3
  %5 = load ptr, ptr %3, align 8
  %6 = call align 8 ptr @llvm.threadlocal.address.p0(ptr align 8 @_ZN4leanL11g_heartbeatE)
  call void @_ZN4lean4fletImEC2ERmRKm(ptr noundef nonnull align 8 dereferenceable(16) %5, ptr noundef nonnull align 8 dereferenceable(8) %6, ptr noundef nonnull align 8 dereferenceable(8) %4)
  ret void
}