; Function Attrs: mustprogress nofree norecurse nosync nounwind willreturn memory(readwrite, argmem: write, inaccessiblemem: none) uwtable
define hidden void @_ZN4lean15scope_heartbeatC2Em(ptr noundef nonnull writeonly align 8 captures(none) dereferenceable(16) initializes((0, 16)) %0, i64 noundef %1) unnamed_addr #4 align 2 {
  %3 = tail call align 8 ptr @llvm.threadlocal.address.p0(ptr align 8 @_ZN4leanL11g_heartbeatE)
  store ptr %3, ptr %0, align 8, !tbaa !7
  %4 = getelementptr inbounds nuw i8, ptr %0, i64 8
  %5 = load i64, ptr %3, align 8, !tbaa !3
  store i64 %5, ptr %4, align 8, !tbaa !10
  store i64 %1, ptr %3, align 8, !tbaa !3
  ret void
}